; Function Attrs: nounwind uwtable
define dso_local i32 @cbuf_lines_used(ptr noundef %0) local_unnamed_addr #0 {
  %2 = tail call i32 @pthread_mutex_lock(ptr noundef %0) #15
  %.not = icmp eq i32 %2, 0
  br i1 %.not, label %5, label %3

3:                                                ; preds = %1
  %4 = tail call ptr @__errno_location() #14
  store i32 %2, ptr %4, align 4
  tail call void (ptr, ...) @fatal_abort(ptr noundef nonnull @.str.2, ptr noundef nonnull @__func__.cbuf_lines_used) #16
  unreachable

5:                                                ; preds = %1
  %6 = getelementptr inbounds nuw i8, ptr %0, i64 52
  %7 = load i32, ptr %6, align 4
  %8 = icmp slt i32 %7, 1
  br i1 %8, label %cbuf_find_unread_line.exit, label %9

9:                                                ; preds = %5
  %10 = getelementptr inbounds nuw i8, ptr %0, i64 56
  %11 = load i32, ptr %10, align 8
  %12 = icmp eq i32 %11, 0
  br i1 %12, label %cbuf_find_unread_line.exit, label %13

13:                                               ; preds = %9
  %14 = getelementptr inbounds nuw i8, ptr %0, i64 72
  %15 = load i32, ptr %14, align 8
  %16 = getelementptr inbounds nuw i8, ptr %0, i64 68
  %17 = load i32, ptr %16, align 4
  %.not45.i = icmp eq i32 %15, %17
  br i1 %.not45.i, label %cbuf_find_unread_line.exit, label %.lr.ph.i

.lr.ph.i:                                         ; preds = %13
  %18 = getelementptr inbounds nuw i8, ptr %0, i64 80
  %19 = load ptr, ptr %18, align 8
  %20 = add nuw nsw i32 %7, 1
  br label %21

21:                                               ; preds = %30, %.lr.ph.i
  %.03050.i = phi i32 [ 0, %.lr.ph.i ], [ %.232.i, %30 ]
  %.03747.i = phi i32 [ %15, %.lr.ph.i ], [ %32, %30 ]
  %.14046.i = phi i32 [ %7, %.lr.ph.i ], [ %spec.select43.i, %30 ]
  %22 = icmp sgt i32 %.14046.i, 0
  %23 = sext i1 %22 to i32
  %spec.select43.i = add nsw i32 %.14046.i, %23
  %24 = sext i32 %.03747.i to i64
  %25 = getelementptr inbounds i8, ptr %19, i64 %24
  %26 = load i8, ptr %25, align 1
  %27 = icmp eq i8 %26, 10
  %28 = zext i1 %27 to i32
  %.232.i = add nuw nsw i32 %.03050.i, %28
  %29 = icmp eq i32 %spec.select43.i, 0
  br i1 %29, label %cbuf_find_unread_line.exit, label %30

30:                                               ; preds = %21
  %31 = add nsw i32 %.03747.i, 1
  %32 = srem i32 %31, %20
  %.not.i = icmp eq i32 %32, %17
  br i1 %.not.i, label %cbuf_find_unread_line.exit, label %21, !llvm.loop !8

cbuf_find_unread_line.exit:                       ; preds = %21, %30, %13, %5, %9
  %.0 = phi i32 [ 0, %5 ], [ 0, %9 ], [ 0, %13 ], [ %.232.i, %30 ], [ %.232.i, %21 ]
  %33 = tail call i32 @pthread_mutex_unlock(ptr noundef %0) #15
  %.not8 = icmp eq i32 %33, 0
  br i1 %.not8, label %36, label %34

34:                                               ; preds = %cbuf_find_unread_line.exit
  %35 = tail call ptr @__errno_location() #14
  store i32 %33, ptr %35, align 4
  tail call void (ptr, ...) @fatal_abort(ptr noundef nonnull @.str.3, ptr noundef nonnull @__func__.cbuf_lines_used) #16
  unreachable

36:                                               ; preds = %cbuf_find_unread_line.exit
  ret i32 %.0
}